target datalayout = "e-m:e-p270:32:32-p271:32:32-p272:64:64-i64:64-i128:128-f80:128-n8:16:32:64-S128"
target triple = "x86_64-pc-linux-gnu"

%struct.SDL_joylist_item = type { i32, ptr, ptr, %struct.SDL_GUID, i64, i32, ptr, ptr, i8, ptr }
%struct.SDL_GUID = type { [16 x i8] }
%struct.SDL_Joystick = type { i32, ptr, ptr, ptr, %struct.SDL_GUID, i16, i64, i8, i8, i32, ptr, i32, ptr, i32, ptr, i32, ptr, i32, ptr, i32, i32, ptr, i16, i16, i64, i64, i16, i16, i64, i64, i8, i8, i8, i64, i8, i32, i32, i32, i8, i32, ptr, i32, ptr, [3 x [3 x float]], i64, ptr, ptr, i32, i32, ptr }
%struct.SDL_sensorlist_item = type { ptr, i64, ptr, ptr }
%struct.joystick_hwdata = type { i32, i32, ptr, ptr, %struct.SDL_GUID, ptr, i8, i8, %struct.ff_effect, i32, ptr, ptr, [767 x i8], [63 x i8], [767 x i8], [63 x i8], i8, i8, i8, ptr, ptr, [63 x %struct.axis_correct], [3 x float], [3 x float], [3 x float], [3 x float], i64, i32, i8, i8, i8, i8, i8, [4 x i32], [4 x i8], [4 x %struct.hat_axis_correct], i8, i8 }
%struct.ff_effect = type { i16, i16, i16, %struct.ff_trigger, %struct.ff_replay, %union.anon }
%struct.ff_trigger = type { i16, i16 }
%struct.ff_replay = type { i16, i16 }
%union.anon = type { %struct.ff_periodic_effect }
%struct.ff_periodic_effect = type { i16, i16, i16, i16, i16, %struct.ff_envelope, i32, ptr }
%struct.ff_envelope = type { i16, i16, i16, i16 }
%struct.axis_correct = type { i8, [3 x i32], i32, i32, float }
%struct.hat_axis_correct = type { i8, [2 x i32], [2 x i32] }

@SDL_joylist = internal global ptr null, align 8
@SDL_sensorlist = internal global ptr null, align 8
@numjoysticks = internal global i32 0, align 4
@.str.17 = private unnamed_addr constant [15 x i8] c"No such device\00", align 1
@.str.18 = private unnamed_addr constant [24 x i8] c"SDL.joystick.cap.rumble\00", align 1

; Function Attrs: nounwind uwtable
define internal ptr @GetSensor(ptr noundef %0) #0 {
  %2 = alloca ptr, align 8
  %3 = alloca ptr, align 8
  %4 = alloca ptr, align 8
  %5 = alloca [128 x i8], align 16
  %6 = alloca i32, align 4
  %7 = alloca i32, align 4
  %8 = alloca [128 x i8], align 16
  %9 = alloca i32, align 4
  store ptr %0, ptr %3, align 8
  call void @llvm.lifetime.start.p0(i64 8, ptr %4) #11
  call void @llvm.lifetime.start.p0(i64 128, ptr %5) #11
  call void @llvm.lifetime.start.p0(i64 4, ptr %6) #11
  store i32 -1, ptr %6, align 4
  call void @SDL_AssertJoysticksLocked()
  %10 = load ptr, ptr %3, align 8
  %11 = icmp ne ptr %10, null
  br i1 %11, label %12, label %15

12:                                               ; preds = %1
  %13 = load ptr, ptr @SDL_sensorlist, align 8
  %14 = icmp ne ptr %13, null
  br i1 %14, label %16, label %15

15:                                               ; preds = %12, %1
  store ptr null, ptr %2, align 8
  store i32 1, ptr %7, align 4
  br label %79

16:                                               ; preds = %12
  %17 = getelementptr inbounds [128 x i8], ptr %5, i64 0, i64 0
  call void @llvm.memset.p0.i64(ptr align 16 %17, i8 0, i64 128, i1 false)
  %18 = load ptr, ptr %3, align 8
  %19 = getelementptr inbounds nuw %struct.SDL_joylist_item, ptr %18, i32 0, i32 1
  %20 = load ptr, ptr %19, align 8
  %21 = call i32 (ptr, i32, ...) @open(ptr noundef %20, i32 noundef 524288, i32 noundef 0)
  store i32 %21, ptr %6, align 4
  %22 = load i32, ptr %6, align 4
  %23 = icmp slt i32 %22, 0
  br i1 %23, label %24, label %25

24:                                               ; preds = %16
  store ptr null, ptr %2, align 8
  store i32 1, ptr %7, align 4
  br label %79

25:                                               ; preds = %16
  %26 = load i32, ptr %6, align 4
  %27 = call i32 (i32, i64, ...) @ioctl(i32 noundef %26, i64 noundef 2155824392, ptr noundef %5) #11
  %28 = icmp slt i32 %27, 0
  br i1 %28, label %29, label %32

29:                                               ; preds = %25
  %30 = load i32, ptr %6, align 4
  %31 = call i32 @close(i32 noundef %30)
  store ptr null, ptr %2, align 8
  store i32 1, ptr %7, align 4
  br label %79

32:                                               ; preds = %25
  %33 = load i32, ptr %6, align 4
  %34 = call i32 @close(i32 noundef %33)
  %35 = load ptr, ptr @SDL_sensorlist, align 8
  store ptr %35, ptr %4, align 8
  br label %36

36:                                               ; preds = %74, %32
  %37 = load ptr, ptr %4, align 8
  %38 = icmp ne ptr %37, null
  br i1 %38, label %39, label %78

39:                                               ; preds = %36
  call void @llvm.lifetime.start.p0(i64 128, ptr %8) #11
  call void @llvm.lifetime.start.p0(i64 4, ptr %9) #11
  store i32 -1, ptr %9, align 4
  %40 = load ptr, ptr %4, align 8
  %41 = getelementptr inbounds nuw %struct.SDL_sensorlist_item, ptr %40, i32 0, i32 2
  %42 = load ptr, ptr %41, align 8
  %43 = icmp ne ptr %42, null
  br i1 %43, label %44, label %45

44:                                               ; preds = %39
  store i32 4, ptr %7, align 4
  br label %71

45:                                               ; preds = %39
  %46 = getelementptr inbounds [128 x i8], ptr %8, i64 0, i64 0
  call void @llvm.memset.p0.i64(ptr align 16 %46, i8 0, i64 128, i1 false)
  %47 = load ptr, ptr %4, align 8
  %48 = getelementptr inbounds nuw %struct.SDL_sensorlist_item, ptr %47, i32 0, i32 0
  %49 = load ptr, ptr %48, align 8
  %50 = call i32 (ptr, i32, ...) @open(ptr noundef %49, i32 noundef 524288, i32 noundef 0)
  store i32 %50, ptr %9, align 4
  %51 = load i32, ptr %9, align 4
  %52 = icmp slt i32 %51, 0
  br i1 %52, label %53, label %54

53:                                               ; preds = %45
  store i32 4, ptr %7, align 4
  br label %71

54:                                               ; preds = %45
  %55 = load i32, ptr %9, align 4
  %56 = call i32 (i32, i64, ...) @ioctl(i32 noundef %55, i64 noundef 2155824392, ptr noundef %8) #11
  %57 = icmp slt i32 %56, 0
  br i1 %57, label %58, label %61

58:                                               ; preds = %54
  %59 = load i32, ptr %9, align 4
  %60 = call i32 @close(i32 noundef %59)
  store i32 4, ptr %7, align 4
  br label %71

61:                                               ; preds = %54
  %62 = load i32, ptr %9, align 4
  %63 = call i32 @close(i32 noundef %62)
  %64 = getelementptr inbounds [128 x i8], ptr %5, i64 0, i64 0
  %65 = getelementptr inbounds [128 x i8], ptr %8, i64 0, i64 0
  %66 = call i32 @SDL_strcmp_REAL(ptr noundef %64, ptr noundef %65)
  %67 = icmp eq i32 %66, 0
  br i1 %67, label %68, label %70

68:                                               ; preds = %61
  %69 = load ptr, ptr %4, align 8
  store ptr %69, ptr %2, align 8
  store i32 1, ptr %7, align 4
  br label %71

70:                                               ; preds = %61
  store i32 0, ptr %7, align 4
  br label %71

71:                                               ; preds = %70, %68, %58, %53, %44
  call void @llvm.lifetime.end.p0(i64 4, ptr %9) #11
  call void @llvm.lifetime.end.p0(i64 128, ptr %8) #11
  %72 = load i32, ptr %7, align 4
  switch i32 %72, label %79 [
    i32 0, label %73
    i32 4, label %74
  ]

73:                                               ; preds = %71
  br label %74

74:                                               ; preds = %73, %71
  %75 = load ptr, ptr %4, align 8
  %76 = getelementptr inbounds nuw %struct.SDL_sensorlist_item, ptr %75, i32 0, i32 3
  %77 = load ptr, ptr %76, align 8
  store ptr %77, ptr %4, align 8
  br label %36, !llvm.loop !23

78:                                               ; preds = %36
  store ptr null, ptr %2, align 8
  store i32 1, ptr %7, align 4
  br label %79

79:                                               ; preds = %78, %71, %29, %24, %15
  call void @llvm.lifetime.end.p0(i64 4, ptr %6) #11
  call void @llvm.lifetime.end.p0(i64 128, ptr %5) #11
  call void @llvm.lifetime.end.p0(i64 8, ptr %4) #11
  %80 = load ptr, ptr %2, align 8
  ret ptr %80
}

; Function Attrs: nounwind uwtable
define internal ptr @GetJoystickByDevIndex(i32 noundef %0) #0 {
  %2 = alloca ptr, align 8
  %3 = alloca i32, align 4
  %4 = alloca ptr, align 8
  %5 = alloca i32, align 4
  store i32 %0, ptr %3, align 4
  call void @llvm.lifetime.start.p0(i64 8, ptr %4) #11
  call void @SDL_AssertJoysticksLocked()
  %6 = load i32, ptr %3, align 4
  %7 = icmp slt i32 %6, 0
  br i1 %7, label %12, label %8

8:                                                ; preds = %1
  %9 = load i32, ptr %3, align 4
  %10 = load i32, ptr @numjoysticks, align 4
  %11 = icmp sge i32 %9, %10
  br i1 %11, label %12, label %13

12:                                               ; preds = %8, %1
  store ptr null, ptr %2, align 8
  store i32 1, ptr %5, align 4
  br label %29

13:                                               ; preds = %8
  %14 = load ptr, ptr @SDL_joylist, align 8
  store ptr %14, ptr %4, align 8
  br label %15

15:                                               ; preds = %21, %13
  %16 = load i32, ptr %3, align 4
  %17 = icmp sgt i32 %16, 0
  br i1 %17, label %18, label %27

18:                                               ; preds = %15
  br label %19

19:                                               ; preds = %18
  br label %20

20:                                               ; preds = %19
  br label %21

21:                                               ; preds = %20
  %22 = load i32, ptr %3, align 4
  %23 = add nsw i32 %22, -1
  store i32 %23, ptr %3, align 4
  %24 = load ptr, ptr %4, align 8
  %25 = getelementptr inbounds nuw %struct.SDL_joylist_item, ptr %24, i32 0, i32 7
  %26 = load ptr, ptr %25, align 8
  store ptr %26, ptr %4, align 8
  br label %15, !llvm.loop !22

27:                                               ; preds = %15
  %28 = load ptr, ptr %4, align 8
  store ptr %28, ptr %2, align 8
  store i32 1, ptr %5, align 4
  br label %29

29:                                               ; preds = %27, %12
  call void @llvm.lifetime.end.p0(i64 8, ptr %4) #11
  %30 = load ptr, ptr %2, align 8
  ret ptr %30
}

; Function Attrs: nounwind uwtable
define internal zeroext i1 @LINUX_JoystickOpen(ptr noundef %0, i32 noundef %1) #0 {
  %3 = alloca i1, align 1
  %4 = alloca ptr, align 8
  %5 = alloca i32, align 4
  %6 = alloca ptr, align 8
  %7 = alloca ptr, align 8
  %8 = alloca i32, align 4
  store ptr %0, ptr %4, align 8
  store i32 %1, ptr %5, align 4
  call void @llvm.lifetime.start.p0(i64 8, ptr %6) #11
  call void @llvm.lifetime.start.p0(i64 8, ptr %7) #11
  call void @SDL_AssertJoysticksLocked()
  %9 = load i32, ptr %5, align 4
  %10 = call ptr @GetJoystickByDevIndex(i32 noundef %9)
  store ptr %10, ptr %6, align 8
  %11 = load ptr, ptr %6, align 8
  %12 = icmp ne ptr %11, null
  br i1 %12, label %15, label %13

13:                                               ; preds = %2
  %14 = call zeroext i1 (ptr, ...) @SDL_SetError_REAL(ptr noundef @.str.17)
  store i1 %14, ptr %3, align 1
  store i32 1, ptr %8, align 4
  br label %116

15:                                               ; preds = %2
  %16 = call noalias ptr @SDL_calloc_REAL(i64 noundef 1, i64 noundef 3752) #13
  %17 = load ptr, ptr %4, align 8
  %18 = getelementptr inbounds nuw %struct.SDL_Joystick, ptr %17, i32 0, i32 46
  store ptr %16, ptr %18, align 8
  %19 = load ptr, ptr %4, align 8
  %20 = getelementptr inbounds nuw %struct.SDL_Joystick, ptr %19, i32 0, i32 46
  %21 = load ptr, ptr %20, align 8
  %22 = icmp ne ptr %21, null
  br i1 %22, label %24, label %23

23:                                               ; preds = %15
  store i1 false, ptr %3, align 1
  store i32 1, ptr %8, align 4
  br label %116

24:                                               ; preds = %15
  %25 = load ptr, ptr %6, align 8
  %26 = call ptr @GetSensor(ptr noundef %25)
  store ptr %26, ptr %7, align 8
  %27 = load ptr, ptr %4, align 8
  %28 = load ptr, ptr %6, align 8
  %29 = load ptr, ptr %7, align 8
  %30 = call zeroext i1 @PrepareJoystickHwdata(ptr noundef %27, ptr noundef %28, ptr noundef %29)
  br i1 %30, label %37, label %31

31:                                               ; preds = %24
  %32 = load ptr, ptr %4, align 8
  %33 = getelementptr inbounds nuw %struct.SDL_Joystick, ptr %32, i32 0, i32 46
  %34 = load ptr, ptr %33, align 8
  call void @SDL_free_REAL(ptr noundef %34)
  %35 = load ptr, ptr %4, align 8
  %36 = getelementptr inbounds nuw %struct.SDL_Joystick, ptr %35, i32 0, i32 46
  store ptr null, ptr %36, align 8
  store i1 false, ptr %3, align 1
  store i32 1, ptr %8, align 4
  br label %116

37:                                               ; preds = %24
  br label %38

38:                                               ; preds = %37
  br label %39

39:                                               ; preds = %38
  br label %40

40:                                               ; preds = %39
  br label %41

41:                                               ; preds = %40
  br label %42

42:                                               ; preds = %41
  br label %43

43:                                               ; preds = %42
  %44 = load ptr, ptr %4, align 8
  %45 = getelementptr inbounds nuw %struct.SDL_Joystick, ptr %44, i32 0, i32 46
  %46 = load ptr, ptr %45, align 8
  %47 = load ptr, ptr %6, align 8
  %48 = getelementptr inbounds nuw %struct.SDL_joylist_item, ptr %47, i32 0, i32 6
  store ptr %46, ptr %48, align 8
  %49 = load ptr, ptr %7, align 8
  %50 = icmp ne ptr %49, null
  br i1 %50, label %51, label %57

51:                                               ; preds = %43
  %52 = load ptr, ptr %4, align 8
  %53 = getelementptr inbounds nuw %struct.SDL_Joystick, ptr %52, i32 0, i32 46
  %54 = load ptr, ptr %53, align 8
  %55 = load ptr, ptr %7, align 8
  %56 = getelementptr inbounds nuw %struct.SDL_sensorlist_item, ptr %55, i32 0, i32 2
  store ptr %54, ptr %56, align 8
  br label %57

57:                                               ; preds = %51, %43
  %58 = load ptr, ptr %4, align 8
  %59 = getelementptr inbounds nuw %struct.SDL_Joystick, ptr %58, i32 0, i32 46
  %60 = load ptr, ptr %59, align 8
  %61 = getelementptr inbounds nuw %struct.joystick_hwdata, ptr %60, i32 0, i32 29
  store i8 1, ptr %61, align 1
  %62 = load ptr, ptr %4, align 8
  %63 = getelementptr inbounds nuw %struct.SDL_Joystick, ptr %62, i32 0, i32 46
  %64 = load ptr, ptr %63, align 8
  %65 = getelementptr inbounds nuw %struct.joystick_hwdata, ptr %64, i32 0, i32 17
  %66 = load i8, ptr %65, align 1, !range !5, !noundef !6
  %67 = trunc i8 %66 to i1
  br i1 %67, label %68, label %70

68:                                               ; preds = %57
  %69 = load ptr, ptr %4, align 8
  call void @SDL_PrivateJoystickAddSensor(ptr noundef %69, i32 noundef 2, float noundef 0.000000e+00)
  br label %70

70:                                               ; preds = %68, %57
  %71 = load ptr, ptr %4, align 8
  %72 = getelementptr inbounds nuw %struct.SDL_Joystick, ptr %71, i32 0, i32 46
  %73 = load ptr, ptr %72, align 8
  %74 = getelementptr inbounds nuw %struct.joystick_hwdata, ptr %73, i32 0, i32 16
  %75 = load i8, ptr %74, align 4, !range !5, !noundef !6
  %76 = trunc i8 %75 to i1
  br i1 %76, label %77, label %79

77:                                               ; preds = %70
  %78 = load ptr, ptr %4, align 8
  call void @SDL_PrivateJoystickAddSensor(ptr noundef %78, i32 noundef 1, float noundef 0.000000e+00)
  br label %79

79:                                               ; preds = %77, %70
  %80 = load ptr, ptr %4, align 8
  %81 = getelementptr inbounds nuw %struct.SDL_Joystick, ptr %80, i32 0, i32 46
  %82 = load ptr, ptr %81, align 8
  %83 = getelementptr inbounds nuw %struct.joystick_hwdata, ptr %82, i32 0, i32 1
  %84 = load i32, ptr %83, align 4
  %85 = icmp sge i32 %84, 0
  br i1 %85, label %86, label %97

86:                                               ; preds = %79
  %87 = load ptr, ptr %4, align 8
  %88 = getelementptr inbounds nuw %struct.SDL_Joystick, ptr %87, i32 0, i32 46
  %89 = load ptr, ptr %88, align 8
  %90 = getelementptr inbounds nuw %struct.joystick_hwdata, ptr %89, i32 0, i32 1
  %91 = load i32, ptr %90, align 4
  %92 = call i32 @close(i32 noundef %91)
  %93 = load ptr, ptr %4, align 8
  %94 = getelementptr inbounds nuw %struct.SDL_Joystick, ptr %93, i32 0, i32 46
  %95 = load ptr, ptr %94, align 8
  %96 = getelementptr inbounds nuw %struct.joystick_hwdata, ptr %95, i32 0, i32 1
  store i32 -1, ptr %96, align 4
  br label %97

97:                                               ; preds = %86, %79
  %98 = load ptr, ptr %4, align 8
  %99 = getelementptr inbounds nuw %struct.SDL_Joystick, ptr %98, i32 0, i32 46
  %100 = load ptr, ptr %99, align 8
  %101 = getelementptr inbounds nuw %struct.joystick_hwdata, ptr %100, i32 0, i32 6
  %102 = load i8, ptr %101, align 8, !range !5, !noundef !6
  %103 = trunc i8 %102 to i1
  br i1 %103, label %111, label %104

104:                                              ; preds = %97
  %105 = load ptr, ptr %4, align 8
  %106 = getelementptr inbounds nuw %struct.SDL_Joystick, ptr %105, i32 0, i32 46
  %107 = load ptr, ptr %106, align 8
  %108 = getelementptr inbounds nuw %struct.joystick_hwdata, ptr %107, i32 0, i32 7
  %109 = load i8, ptr %108, align 1, !range !5, !noundef !6
  %110 = trunc i8 %109 to i1
  br i1 %110, label %111, label %115

111:                                              ; preds = %104, %97
  %112 = load ptr, ptr %4, align 8
  %113 = call i32 @SDL_GetJoystickProperties_REAL(ptr noundef %112)
  %114 = call zeroext i1 @SDL_SetBooleanProperty_REAL(i32 noundef %113, ptr noundef @.str.18, i1 noundef zeroext true)
  br label %115

115:                                              ; preds = %111, %104
  store i1 true, ptr %3, align 1
  store i32 1, ptr %8, align 4
  br label %116

116:                                              ; preds = %115, %31, %23, %13
  call void @llvm.lifetime.end.p0(i64 8, ptr %7) #11
  call void @llvm.lifetime.end.p0(i64 8, ptr %6) #11
  %117 = load i1, ptr %3, align 1
  ret i1 %117
}