; Function Attrs: nounwind uwtable
define internal zeroext i1 @LINUX_JoystickOpen(ptr noundef %0, i32 noundef %1) #0 {
  %3 = alloca [128 x i8], align 16
  %4 = alloca [128 x i8], align 16
  tail call void @SDL_AssertJoysticksLocked() #18
  tail call void @SDL_AssertJoysticksLocked() #18
  %5 = icmp sgt i32 %1, -1
  %6 = load i32, ptr @numjoysticks, align 4
  %.not.i = icmp slt i32 %1, %6
  %or.cond.i = select i1 %5, i1 %.not.i, i1 false
  br i1 %or.cond.i, label %.preheader.i, label %GetJoystickByDevIndex.exit.thread

.preheader.i:                                     ; preds = %2
  %.09.i = load ptr, ptr @SDL_joylist, align 8
  %.not12.i = icmp eq i32 %1, 0
  br i1 %.not12.i, label %GetJoystickByDevIndex.exit, label %.lr.ph.i

.lr.ph.i:                                         ; preds = %.preheader.i, %.lr.ph.i
  %.011.i = phi ptr [ %.0.i, %.lr.ph.i ], [ %.09.i, %.preheader.i ]
  %.0610.i = phi i32 [ %7, %.lr.ph.i ], [ %1, %.preheader.i ]
  %7 = add nsw i32 %.0610.i, -1
  %8 = getelementptr inbounds nuw i8, ptr %.011.i, i64 64
  %.0.i = load ptr, ptr %8, align 8
  %9 = icmp samesign ugt i32 %.0610.i, 1
  br i1 %9, label %.lr.ph.i, label %GetJoystickByDevIndex.exit, !llvm.loop !13

GetJoystickByDevIndex.exit:                       ; preds = %.lr.ph.i, %.preheader.i
  %.07.i = phi ptr [ %.09.i, %.preheader.i ], [ %.0.i, %.lr.ph.i ]
  %.not = icmp eq ptr %.07.i, null
  br i1 %.not, label %GetJoystickByDevIndex.exit.thread, label %11

GetJoystickByDevIndex.exit.thread:                ; preds = %2, %GetJoystickByDevIndex.exit
  %10 = tail call zeroext i1 (ptr, ...) @SDL_SetError_REAL(ptr noundef nonnull @.str.17) #18
  br label %83

11:                                               ; preds = %GetJoystickByDevIndex.exit
  %12 = tail call noalias dereferenceable_or_null(3752) ptr @SDL_calloc_REAL(i64 noundef 1, i64 noundef 3752) #21
  %13 = getelementptr inbounds nuw i8, ptr %0, i64 328
  store ptr %12, ptr %13, align 8
  %.not29 = icmp eq ptr %12, null
  br i1 %.not29, label %83, label %14

14:                                               ; preds = %11
  call void @llvm.lifetime.start.p0(i64 128, ptr nonnull %3) #18
  tail call void @SDL_AssertJoysticksLocked() #18
  %15 = load ptr, ptr @SDL_sensorlist, align 8
  %.not.i31 = icmp eq ptr %15, null
  br i1 %.not.i31, label %GetSensor.exit, label %16

16:                                               ; preds = %14
  call void @llvm.memset.p0.i64(ptr noundef nonnull align 16 dereferenceable(128) %3, i8 0, i64 128, i1 false)
  %17 = getelementptr inbounds nuw i8, ptr %.07.i, i64 8
  %18 = load ptr, ptr %17, align 8
  %19 = tail call i32 (ptr, i32, ...) @open(ptr noundef %18, i32 noundef 524288, i32 noundef 0) #18
  %20 = icmp slt i32 %19, 0
  br i1 %20, label %GetSensor.exit, label %21

21:                                               ; preds = %16
  %22 = call i32 (i32, i64, ...) @ioctl(i32 noundef %19, i64 noundef 2155824392, ptr noundef nonnull %3) #18
  %23 = icmp slt i32 %22, 0
  %24 = call i32 @close(i32 noundef %19) #18
  %.01728.i = load ptr, ptr @SDL_sensorlist, align 8
  %.not2229.i = icmp eq ptr %.01728.i, null
  %or.cond.i32 = select i1 %23, i1 true, i1 %.not2229.i
  br i1 %or.cond.i32, label %GetSensor.exit, label %.lr.ph.i33

.lr.ph.i33:                                       ; preds = %21, %39
  %.01730.i = phi ptr [ %.017.i, %39 ], [ %.01728.i, %21 ]
  call void @llvm.lifetime.start.p0(i64 128, ptr nonnull %4) #18
  %25 = getelementptr inbounds nuw i8, ptr %.01730.i, i64 16
  %26 = load ptr, ptr %25, align 8
  %.not23.i = icmp eq ptr %26, null
  br i1 %.not23.i, label %27, label %39

27:                                               ; preds = %.lr.ph.i33
  call void @llvm.memset.p0.i64(ptr noundef nonnull align 16 dereferenceable(128) %4, i8 0, i64 128, i1 false)
  %28 = load ptr, ptr %.01730.i, align 8
  %29 = call i32 (ptr, i32, ...) @open(ptr noundef %28, i32 noundef 524288, i32 noundef 0) #18
  %30 = icmp slt i32 %29, 0
  br i1 %30, label %39, label %31

31:                                               ; preds = %27
  %32 = call i32 (i32, i64, ...) @ioctl(i32 noundef %29, i64 noundef 2155824392, ptr noundef nonnull %4) #18
  %33 = icmp slt i32 %32, 0
  %34 = call i32 @close(i32 noundef %29) #18
  br i1 %33, label %39, label %35

35:                                               ; preds = %31
  %36 = call i32 @SDL_strcmp_REAL(ptr noundef nonnull %3, ptr noundef nonnull %4) #18
  %37 = icmp eq i32 %36, 0
  br i1 %37, label %38, label %39

38:                                               ; preds = %35
  call void @llvm.lifetime.end.p0(i64 128, ptr nonnull %4) #18
  br label %GetSensor.exit

39:                                               ; preds = %35, %31, %27, %.lr.ph.i33
  call void @llvm.lifetime.end.p0(i64 128, ptr nonnull %4) #18
  %40 = getelementptr inbounds nuw i8, ptr %.01730.i, i64 24
  %.017.i = load ptr, ptr %40, align 8
  %.not22.i = icmp eq ptr %.017.i, null
  br i1 %.not22.i, label %GetSensor.exit, label %.lr.ph.i33, !llvm.loop !14

GetSensor.exit:                                   ; preds = %39, %14, %16, %21, %38
  %.018.i = phi ptr [ %.01730.i, %38 ], [ null, %14 ], [ null, %16 ], [ null, %21 ], [ null, %39 ]
  call void @llvm.lifetime.end.p0(i64 128, ptr nonnull %3) #18
  %41 = call fastcc zeroext i1 @PrepareJoystickHwdata(ptr noundef %0, ptr noundef nonnull %.07.i, ptr noundef %.018.i)
  %42 = load ptr, ptr %13, align 8
  br i1 %41, label %44, label %43

43:                                               ; preds = %GetSensor.exit
  call void @SDL_free_REAL(ptr noundef %42) #18
  store ptr null, ptr %13, align 8
  br label %83

44:                                               ; preds = %GetSensor.exit
  %45 = getelementptr inbounds nuw i8, ptr %.07.i, i64 56
  store ptr %42, ptr %45, align 8
  %.not30 = icmp eq ptr %.018.i, null
  br i1 %.not30, label %48, label %46

46:                                               ; preds = %44
  %47 = getelementptr inbounds nuw i8, ptr %.018.i, i64 16
  store ptr %42, ptr %47, align 8
  %.pre = load ptr, ptr %13, align 8
  br label %48

48:                                               ; preds = %46, %44
  %49 = phi ptr [ %.pre, %46 ], [ %42, %44 ]
  %50 = getelementptr inbounds nuw i8, ptr %49, i64 3637
  store i8 1, ptr %50, align 1
  %51 = load ptr, ptr %13, align 8
  %52 = getelementptr inbounds nuw i8, ptr %51, i64 1789
  %53 = load i8, ptr %52, align 1, !range !5, !noundef !6
  %54 = trunc nuw i8 %53 to i1
  br i1 %54, label %55, label %56

55:                                               ; preds = %48
  call void @SDL_PrivateJoystickAddSensor(ptr noundef nonnull %0, i32 noundef 2, float noundef 0.000000e+00) #18
  %.pre38 = load ptr, ptr %13, align 8
  br label %56

56:                                               ; preds = %55, %48
  %57 = phi ptr [ %.pre38, %55 ], [ %51, %48 ]
  %58 = getelementptr inbounds nuw i8, ptr %57, i64 1788
  %59 = load i8, ptr %58, align 4, !range !5, !noundef !6
  %60 = trunc nuw i8 %59 to i1
  br i1 %60, label %61, label %62

61:                                               ; preds = %56
  call void @SDL_PrivateJoystickAddSensor(ptr noundef nonnull %0, i32 noundef 1, float noundef 0.000000e+00) #18
  %.pre39 = load ptr, ptr %13, align 8
  br label %62

62:                                               ; preds = %61, %56
  %63 = phi ptr [ %.pre39, %61 ], [ %57, %56 ]
  %64 = getelementptr inbounds nuw i8, ptr %63, i64 4
  %65 = load i32, ptr %64, align 4
  %66 = icmp sgt i32 %65, -1
  br i1 %66, label %67, label %71

67:                                               ; preds = %62
  %68 = call i32 @close(i32 noundef %65) #18
  %69 = load ptr, ptr %13, align 8
  %70 = getelementptr inbounds nuw i8, ptr %69, i64 4
  store i32 -1, ptr %70, align 4
  %.pre40 = load ptr, ptr %13, align 8
  br label %71

71:                                               ; preds = %67, %62
  %72 = phi ptr [ %.pre40, %67 ], [ %63, %62 ]
  %73 = getelementptr inbounds nuw i8, ptr %72, i64 48
  %74 = load i8, ptr %73, align 8, !range !5, !noundef !6
  %75 = trunc nuw i8 %74 to i1
  br i1 %75, label %80, label %76

76:                                               ; preds = %71
  %77 = getelementptr inbounds nuw i8, ptr %72, i64 49
  %78 = load i8, ptr %77, align 1, !range !5, !noundef !6
  %79 = trunc nuw i8 %78 to i1
  br i1 %79, label %80, label %83

80:                                               ; preds = %76, %71
  %81 = call i32 @SDL_GetJoystickProperties_REAL(ptr noundef nonnull %0) #18
  %82 = call zeroext i1 @SDL_SetBooleanProperty_REAL(i32 noundef %81, ptr noundef nonnull @.str.18, i1 noundef zeroext true) #18
  br label %83

83:                                               ; preds = %76, %80, %11, %43, %GetJoystickByDevIndex.exit.thread
  %.0 = phi i1 [ false, %43 ], [ %10, %GetJoystickByDevIndex.exit.thread ], [ false, %11 ], [ true, %80 ], [ true, %76 ]
  ret i1 %.0
}